target datalayout = "e-m:e-p270:32:32-p271:32:32-p272:64:64-i64:64-i128:128-f80:128-n8:16:32:64-S128"
target triple = "x86_64-pc-linux-gnu"

%struct._address = type { i32, i32, ptr, ptr }
%struct._packet_info = type { ptr, ptr, i32, i32, %struct.nstime_t, %struct.nstime_t, %struct.nstime_t, i8, ptr, ptr, ptr, ptr, %struct._address, %struct._address, %struct._address, %struct._address, %struct._address, %struct._address, i32, ptr, i8, [3 x i8], %struct.anon.1, i32, i32, i32, i32, ptr, i8, ptr, ptr, i16, i16, i32, i32, i16, i32, i32, ptr, ptr, ptr, i8, i8, i16, i16, i16, i32, i16, i16, ptr, ptr, ptr, ptr, ptr, i32, i32 }
%struct.nstime_t = type { i64, i32 }
%struct.anon.1 = type { i8, [3 x i8] }
%struct.lbtrm_tag_entry_t = type { ptr, ptr, i32, ptr, i32, i32, i32, i32, i32, i32, i32, ptr, i32, ptr, i32 }

@lbtrm_use_tag = internal global i8 0, align 1
@lbtrm_tag_entry = internal global ptr null, align 8
@lbtrm_tag_count = internal global i32 0, align 4

; Function Attrs: inlinehint nounwind null_pointer_is_valid sspstrong uwtable
define internal i32 @pntoh32(ptr noundef %0) #6 {
  %2 = alloca ptr, align 8
  store ptr %0, ptr %2, align 8
  %3 = load ptr, ptr %2, align 8
  %4 = getelementptr i8, ptr %3, i64 0
  %5 = load i8, ptr %4, align 1
  %6 = zext i8 %5 to i32
  %7 = shl i32 %6, 24
  %8 = load ptr, ptr %2, align 8
  %9 = getelementptr i8, ptr %8, i64 1
  %10 = load i8, ptr %9, align 1
  %11 = zext i8 %10 to i32
  %12 = shl i32 %11, 16
  %13 = or i32 %7, %12
  %14 = load ptr, ptr %2, align 8
  %15 = getelementptr i8, ptr %14, i64 2
  %16 = load i8, ptr %15, align 1
  %17 = zext i8 %16 to i32
  %18 = shl i32 %17, 8
  %19 = or i32 %13, %18
  %20 = load ptr, ptr %2, align 8
  %21 = getelementptr i8, ptr %20, i64 3
  %22 = load i8, ptr %21, align 1
  %23 = zext i8 %22 to i32
  %24 = shl i32 %23, 0
  %25 = or i32 %19, %24
  ret i32 %25
}

; Function Attrs: null_pointer_is_valid sspstrong uwtable
define internal ptr @lbtrm_tag_find(ptr noundef %0) #0 {
  %2 = alloca ptr, align 8
  %3 = alloca ptr, align 8
  %4 = alloca i32, align 4
  %5 = alloca ptr, align 8
  %6 = alloca i32, align 4
  %7 = alloca i32, align 4
  store ptr %0, ptr %3, align 8
  call void @llvm.lifetime.start.p0(i64 4, ptr %4) #9
  call void @llvm.lifetime.start.p0(i64 8, ptr %5) #9
  store ptr null, ptr %5, align 8
  call void @llvm.lifetime.start.p0(i64 4, ptr %6) #9
  %8 = load i8, ptr @lbtrm_use_tag, align 1, !range !10, !noundef !11
  %9 = trunc i8 %8 to i1
  br i1 %9, label %11, label %10

10:                                               ; preds = %1
  store ptr null, ptr %2, align 8
  store i32 1, ptr %7, align 4
  br label %134

11:                                               ; preds = %1
  %12 = load ptr, ptr %3, align 8
  %13 = getelementptr inbounds nuw %struct._packet_info, ptr %12, i32 0, i32 17
  %14 = getelementptr inbounds nuw %struct._address, ptr %13, i32 0, i32 2
  %15 = load ptr, ptr %14, align 8
  %16 = call i32 @pntoh32(ptr noundef %15)
  store i32 %16, ptr %6, align 4
  store i32 0, ptr %4, align 4
  br label %17

17:                                               ; preds = %130, %11
  %18 = load i32, ptr %4, align 4
  %19 = load i32, ptr @lbtrm_tag_count, align 4
  %20 = icmp ult i32 %18, %19
  br i1 %20, label %21, label %133

21:                                               ; preds = %17
  %22 = load ptr, ptr @lbtrm_tag_entry, align 8
  %23 = load i32, ptr %4, align 4
  %24 = zext i32 %23 to i64
  %25 = getelementptr %struct.lbtrm_tag_entry_t, ptr %22, i64 %24
  store ptr %25, ptr %5, align 8
  %26 = load i32, ptr %6, align 4
  %27 = and i32 %26, -268435456
  %28 = icmp eq i32 %27, -536870912
  br i1 %28, label %29, label %109

29:                                               ; preds = %21
  %30 = load i32, ptr %6, align 4
  %31 = load ptr, ptr %5, align 8
  %32 = getelementptr inbounds nuw %struct.lbtrm_tag_entry_t, ptr %31, i32 0, i32 2
  %33 = load i32, ptr %32, align 8
  %34 = icmp uge i32 %30, %33
  br i1 %34, label %35, label %62

35:                                               ; preds = %29
  %36 = load i32, ptr %6, align 4
  %37 = load ptr, ptr %5, align 8
  %38 = getelementptr inbounds nuw %struct.lbtrm_tag_entry_t, ptr %37, i32 0, i32 4
  %39 = load i32, ptr %38, align 8
  %40 = icmp ule i32 %36, %39
  br i1 %40, label %41, label %62

41:                                               ; preds = %35
  %42 = load ptr, ptr %3, align 8
  %43 = getelementptr inbounds nuw %struct._packet_info, ptr %42, i32 0, i32 25
  %44 = load i32, ptr %43, align 8
  %45 = load ptr, ptr %5, align 8
  %46 = getelementptr inbounds nuw %struct.lbtrm_tag_entry_t, ptr %45, i32 0, i32 5
  %47 = load i32, ptr %46, align 4
  %48 = icmp uge i32 %44, %47
  br i1 %48, label %49, label %61

49:                                               ; preds = %41
  %50 = load ptr, ptr %3, align 8
  %51 = getelementptr inbounds nuw %struct._packet_info, ptr %50, i32 0, i32 25
  %52 = load i32, ptr %51, align 8
  %53 = load ptr, ptr %5, align 8
  %54 = getelementptr inbounds nuw %struct.lbtrm_tag_entry_t, ptr %53, i32 0, i32 6
  %55 = load i32, ptr %54, align 8
  %56 = icmp ule i32 %52, %55
  br i1 %56, label %57, label %61

57:                                               ; preds = %49
  %58 = load ptr, ptr %5, align 8
  %59 = getelementptr inbounds nuw %struct.lbtrm_tag_entry_t, ptr %58, i32 0, i32 0
  %60 = load ptr, ptr %59, align 8
  store ptr %60, ptr %2, align 8
  store i32 1, ptr %7, align 4
  br label %134

61:                                               ; preds = %49, %41
  br label %108

62:                                               ; preds = %35, %29
  %63 = load i32, ptr %6, align 4
  %64 = load ptr, ptr %5, align 8
  %65 = getelementptr inbounds nuw %struct.lbtrm_tag_entry_t, ptr %64, i32 0, i32 12
  %66 = load i32, ptr %65, align 8
  %67 = icmp eq i32 %63, %66
  br i1 %67, label %74, label %68

68:                                               ; preds = %62
  %69 = load i32, ptr %6, align 4
  %70 = load ptr, ptr %5, align 8
  %71 = getelementptr inbounds nuw %struct.lbtrm_tag_entry_t, ptr %70, i32 0, i32 14
  %72 = load i32, ptr %71, align 8
  %73 = icmp eq i32 %69, %72
  br i1 %73, label %74, label %107

74:                                               ; preds = %68, %62
  %75 = load i32, ptr %6, align 4
  %76 = load ptr, ptr %5, align 8
  %77 = getelementptr inbounds nuw %struct.lbtrm_tag_entry_t, ptr %76, i32 0, i32 12
  %78 = load i32, ptr %77, align 8
  %79 = icmp eq i32 %75, %78
  br i1 %79, label %80, label %88

80:                                               ; preds = %74
  %81 = load ptr, ptr %3, align 8
  %82 = getelementptr inbounds nuw %struct._packet_info, ptr %81, i32 0, i32 25
  %83 = load i32, ptr %82, align 8
  %84 = load ptr, ptr %5, align 8
  %85 = getelementptr inbounds nuw %struct.lbtrm_tag_entry_t, ptr %84, i32 0, i32 9
  %86 = load i32, ptr %85, align 4
  %87 = icmp eq i32 %83, %86
  br i1 %87, label %102, label %88

88:                                               ; preds = %80, %74
  %89 = load i32, ptr %6, align 4
  %90 = load ptr, ptr %5, align 8
  %91 = getelementptr inbounds nuw %struct.lbtrm_tag_entry_t, ptr %90, i32 0, i32 14
  %92 = load i32, ptr %91, align 8
  %93 = icmp eq i32 %89, %92
  br i1 %93, label %94, label %106

94:                                               ; preds = %88
  %95 = load ptr, ptr %3, align 8
  %96 = getelementptr inbounds nuw %struct._packet_info, ptr %95, i32 0, i32 25
  %97 = load i32, ptr %96, align 8
  %98 = load ptr, ptr %5, align 8
  %99 = getelementptr inbounds nuw %struct.lbtrm_tag_entry_t, ptr %98, i32 0, i32 10
  %100 = load i32, ptr %99, align 8
  %101 = icmp eq i32 %97, %100
  br i1 %101, label %102, label %106

102:                                              ; preds = %94, %80
  %103 = load ptr, ptr %5, align 8
  %104 = getelementptr inbounds nuw %struct.lbtrm_tag_entry_t, ptr %103, i32 0, i32 0
  %105 = load ptr, ptr %104, align 8
  store ptr %105, ptr %2, align 8
  store i32 1, ptr %7, align 4
  br label %134

106:                                              ; preds = %94, %88
  br label %107

107:                                              ; preds = %106, %68
  br label %108

108:                                              ; preds = %107, %61
  br label %130

109:                                              ; preds = %21
  %110 = load ptr, ptr %3, align 8
  %111 = getelementptr inbounds nuw %struct._packet_info, ptr %110, i32 0, i32 25
  %112 = load i32, ptr %111, align 8
  %113 = load ptr, ptr %5, align 8
  %114 = getelementptr inbounds nuw %struct.lbtrm_tag_entry_t, ptr %113, i32 0, i32 7
  %115 = load i32, ptr %114, align 4
  %116 = icmp ult i32 %112, %115
  br i1 %116, label %125, label %117

117:                                              ; preds = %109
  %118 = load ptr, ptr %3, align 8
  %119 = getelementptr inbounds nuw %struct._packet_info, ptr %118, i32 0, i32 25
  %120 = load i32, ptr %119, align 8
  %121 = load ptr, ptr %5, align 8
  %122 = getelementptr inbounds nuw %struct.lbtrm_tag_entry_t, ptr %121, i32 0, i32 8
  %123 = load i32, ptr %122, align 8
  %124 = icmp ugt i32 %120, %123
  br i1 %124, label %125, label %126

125:                                              ; preds = %117, %109
  br label %130

126:                                              ; preds = %117
  %127 = load ptr, ptr %5, align 8
  %128 = getelementptr inbounds nuw %struct.lbtrm_tag_entry_t, ptr %127, i32 0, i32 0
  %129 = load ptr, ptr %128, align 8
  store ptr %129, ptr %2, align 8
  store i32 1, ptr %7, align 4
  br label %134

130:                                              ; preds = %125, %108
  %131 = load i32, ptr %4, align 4
  %132 = add i32 %131, 1
  store i32 %132, ptr %4, align 4
  br label %17, !llvm.loop !18

133:                                              ; preds = %17
  store ptr null, ptr %2, align 8
  store i32 1, ptr %7, align 4
  br label %134

134:                                              ; preds = %133, %126, %102, %57, %10
  call void @llvm.lifetime.end.p0(i64 4, ptr %6) #9
  call void @llvm.lifetime.end.p0(i64 8, ptr %5) #9
  call void @llvm.lifetime.end.p0(i64 4, ptr %4) #9
  %135 = load ptr, ptr %2, align 8
  ret ptr %135
}