; Function Attrs: nofree norecurse nosync nounwind null_pointer_is_valid sspstrong memory(read, inaccessiblemem: none) uwtable
define internal fastcc ptr @lbtrm_tag_find(ptr noundef readonly captures(none) %0) unnamed_addr #5 {
  %2 = load i8, ptr @lbtrm_use_tag, align 1, !range !10, !noundef !11
  %3 = trunc nuw i8 %2 to i1
  br i1 %3, label %4, label %.loopexit

4:                                                ; preds = %1
  %5 = getelementptr inbounds nuw i8, ptr %0, i64 240
  %6 = load ptr, ptr %5, align 8
  %7 = load i8, ptr %6, align 1
  %8 = zext i8 %7 to i32
  %9 = shl nuw i32 %8, 24
  %10 = getelementptr i8, ptr %6, i64 1
  %11 = load i8, ptr %10, align 1
  %12 = zext i8 %11 to i32
  %13 = shl nuw nsw i32 %12, 16
  %14 = getelementptr i8, ptr %6, i64 2
  %15 = load i8, ptr %14, align 1
  %16 = zext i8 %15 to i32
  %17 = shl nuw nsw i32 %16, 8
  %18 = getelementptr i8, ptr %6, i64 3
  %19 = load i8, ptr %18, align 1
  %20 = zext i8 %19 to i32
  %21 = or disjoint i32 %13, %9
  %22 = or disjoint i32 %21, %20
  %23 = or disjoint i32 %22, %17
  %24 = load i32, ptr @lbtrm_tag_count, align 4
  %.not = icmp eq i32 %24, 0
  br i1 %.not, label %.loopexit, label %.lr.ph

.lr.ph:                                           ; preds = %4
  %25 = load ptr, ptr @lbtrm_tag_entry, align 8
  %26 = and i32 %8, 240
  %27 = icmp eq i32 %26, 224
  %28 = getelementptr inbounds nuw i8, ptr %0, i64 288
  br i1 %27, label %.lr.ph.split.us.preheader, label %.lr.ph.split

.lr.ph.split.us.preheader:                        ; preds = %.lr.ph
  %wide.trip.count54 = zext i32 %24 to i64
  br label %.lr.ph.split.us

.lr.ph.split.us:                                  ; preds = %.lr.ph.split.us.preheader, %61
  %indvars.iv51 = phi i64 [ 0, %.lr.ph.split.us.preheader ], [ %indvars.iv.next52, %61 ]
  %29 = getelementptr %struct.lbtrm_tag_entry_t, ptr %25, i64 %indvars.iv51
  %30 = getelementptr inbounds nuw i8, ptr %29, i64 16
  %31 = load i32, ptr %30, align 8
  %.not.us = icmp ult i32 %23, %31
  br i1 %.not.us, label %42, label %32

32:                                               ; preds = %.lr.ph.split.us
  %33 = getelementptr inbounds nuw i8, ptr %29, i64 32
  %34 = load i32, ptr %33, align 8
  %.not36.us = icmp ugt i32 %23, %34
  br i1 %.not36.us, label %42, label %35

35:                                               ; preds = %32
  %36 = load i32, ptr %28, align 8
  %37 = getelementptr inbounds nuw i8, ptr %29, i64 36
  %38 = load i32, ptr %37, align 4
  %.not37.us = icmp ult i32 %36, %38
  br i1 %.not37.us, label %61, label %39

39:                                               ; preds = %35
  %40 = getelementptr inbounds nuw i8, ptr %29, i64 40
  %41 = load i32, ptr %40, align 8
  %.not38.us = icmp ugt i32 %36, %41
  br i1 %.not38.us, label %61, label %.loopexit.sink.split

42:                                               ; preds = %32, %.lr.ph.split.us
  %43 = getelementptr inbounds nuw i8, ptr %29, i64 72
  %44 = load i32, ptr %43, align 8
  %45 = icmp eq i32 %23, %44
  br i1 %45, label %50, label %46

46:                                               ; preds = %42
  %47 = getelementptr inbounds nuw i8, ptr %29, i64 88
  %48 = load i32, ptr %47, align 8
  %49 = icmp eq i32 %23, %48
  br i1 %49, label %.thread, label %61

50:                                               ; preds = %42
  %51 = load i32, ptr %28, align 8
  %52 = getelementptr inbounds nuw i8, ptr %29, i64 52
  %53 = load i32, ptr %52, align 4
  %54 = icmp eq i32 %51, %53
  br i1 %54, label %.loopexit.sink.split, label %55

55:                                               ; preds = %50
  %.phi.trans.insert = getelementptr inbounds nuw i8, ptr %29, i64 88
  %.pre = load i32, ptr %.phi.trans.insert, align 8
  %56 = icmp eq i32 %23, %.pre
  br i1 %56, label %.thread, label %61

.thread:                                          ; preds = %46, %55
  %57 = load i32, ptr %28, align 8
  %58 = getelementptr inbounds nuw i8, ptr %29, i64 56
  %59 = load i32, ptr %58, align 8
  %60 = icmp eq i32 %57, %59
  br i1 %60, label %.loopexit.sink.split, label %61

61:                                               ; preds = %.thread, %55, %46, %39, %35
  %indvars.iv.next52 = add nuw nsw i64 %indvars.iv51, 1
  %exitcond55.not = icmp eq i64 %indvars.iv.next52, %wide.trip.count54
  br i1 %exitcond55.not, label %.loopexit, label %.lr.ph.split.us, !llvm.loop !19

.lr.ph.split:                                     ; preds = %.lr.ph
  %62 = load i32, ptr %28, align 8
  %wide.trip.count = zext i32 %24 to i64
  br label %63

63:                                               ; preds = %.lr.ph.split, %72
  %indvars.iv = phi i64 [ 0, %.lr.ph.split ], [ %indvars.iv.next, %72 ]
  %64 = getelementptr %struct.lbtrm_tag_entry_t, ptr %25, i64 %indvars.iv
  %65 = getelementptr inbounds nuw i8, ptr %64, i64 44
  %66 = load i32, ptr %65, align 4
  %67 = icmp ult i32 %62, %66
  br i1 %67, label %72, label %68

68:                                               ; preds = %63
  %69 = getelementptr inbounds nuw i8, ptr %64, i64 48
  %70 = load i32, ptr %69, align 8
  %71 = icmp ugt i32 %62, %70
  br i1 %71, label %72, label %.loopexit.sink.split

72:                                               ; preds = %63, %68
  %indvars.iv.next = add nuw nsw i64 %indvars.iv, 1
  %exitcond.not = icmp eq i64 %indvars.iv.next, %wide.trip.count
  br i1 %exitcond.not, label %.loopexit, label %63, !llvm.loop !19

.loopexit.sink.split:                             ; preds = %68, %.thread, %50, %39
  %.lcssa59.sink = phi ptr [ %29, %39 ], [ %29, %50 ], [ %29, %.thread ], [ %64, %68 ]
  %73 = load ptr, ptr %.lcssa59.sink, align 8
  br label %.loopexit

.loopexit:                                        ; preds = %72, %61, %.loopexit.sink.split, %4, %1
  %.0 = phi ptr [ null, %1 ], [ null, %4 ], [ %73, %.loopexit.sink.split ], [ null, %61 ], [ null, %72 ]
  ret ptr %.0
}